; Function Attrs: nounwind uwtable
define internal fastcc void @Vec_StrPrintNumStar(ptr noundef captures(none) %0, i32 noundef range(i32 -2147483647, -2147483648) %1, i32 noundef %2) unnamed_addr #0 {
  %4 = alloca [16 x i8], align 16
  call void @llvm.memset.p0.i64(ptr noundef nonnull align 16 dereferenceable(16) %4, i8 0, i64 16, i1 false)
  %5 = icmp eq i32 %1, 0
  br i1 %5, label %.preheader, label %37

.preheader:                                       ; preds = %3
  %6 = icmp sgt i32 %2, 0
  br i1 %6, label %.lr.ph42, label %.loopexit

.lr.ph42:                                         ; preds = %.preheader
  %7 = getelementptr inbounds nuw i8, ptr %0, i64 4
  %.phi.trans.insert.i = getelementptr inbounds nuw i8, ptr %0, i64 8
  br label %8

8:                                                ; preds = %.lr.ph42, %Vec_StrPush.exit
  %.041 = phi i32 [ 0, %.lr.ph42 ], [ %36, %Vec_StrPush.exit ]
  %9 = load i32, ptr %7, align 4
  %10 = load i32, ptr %0, align 8
  %11 = icmp eq i32 %9, %10
  br i1 %11, label %12, label %.Vec_StrGrow.exit10_crit_edge.i

.Vec_StrGrow.exit10_crit_edge.i:                  ; preds = %8
  %.pre.i = load ptr, ptr %.phi.trans.insert.i, align 8
  br label %Vec_StrPush.exit

12:                                               ; preds = %8
  %13 = icmp slt i32 %9, 16
  br i1 %13, label %14, label %21

14:                                               ; preds = %12
  %15 = load ptr, ptr %.phi.trans.insert.i, align 8
  %.not9.i.i = icmp eq ptr %15, null
  br i1 %.not9.i.i, label %18, label %16

16:                                               ; preds = %14
  %17 = tail call dereferenceable_or_null(16) ptr @realloc(ptr noundef nonnull %15, i64 noundef 16) #30
  br label %Vec_StrGrow.exit.i

18:                                               ; preds = %14
  %19 = tail call noalias dereferenceable_or_null(16) ptr @malloc(i64 noundef 16) #28
  br label %Vec_StrGrow.exit.i

Vec_StrGrow.exit.i:                               ; preds = %18, %16
  %20 = phi ptr [ %17, %16 ], [ %19, %18 ]
  store ptr %20, ptr %.phi.trans.insert.i, align 8
  store i32 16, ptr %0, align 8
  br label %Vec_StrPush.exit

21:                                               ; preds = %12
  %22 = shl nuw nsw i32 %9, 1
  %23 = load ptr, ptr %.phi.trans.insert.i, align 8
  %.not9.i9.i = icmp eq ptr %23, null
  %24 = zext nneg i32 %22 to i64
  br i1 %.not9.i9.i, label %27, label %25

25:                                               ; preds = %21
  %26 = tail call ptr @realloc(ptr noundef nonnull %23, i64 noundef %24) #30
  br label %29

27:                                               ; preds = %21
  %28 = tail call noalias ptr @malloc(i64 noundef %24) #28
  br label %29

29:                                               ; preds = %27, %25
  %30 = phi ptr [ %26, %25 ], [ %28, %27 ]
  store ptr %30, ptr %.phi.trans.insert.i, align 8
  store i32 %22, ptr %0, align 8
  br label %Vec_StrPush.exit

Vec_StrPush.exit:                                 ; preds = %.Vec_StrGrow.exit10_crit_edge.i, %Vec_StrGrow.exit.i, %29
  %31 = phi ptr [ %.pre.i, %.Vec_StrGrow.exit10_crit_edge.i ], [ %30, %29 ], [ %20, %Vec_StrGrow.exit.i ]
  %32 = load i32, ptr %7, align 4
  %33 = add nsw i32 %32, 1
  store i32 %33, ptr %7, align 4
  %34 = sext i32 %32 to i64
  %35 = getelementptr inbounds i8, ptr %31, i64 %34
  store i8 48, ptr %35, align 1
  %36 = add nuw nsw i32 %.041, 1
  %exitcond.not = icmp eq i32 %36, %2
  br i1 %exitcond.not, label %.loopexit, label %8, !llvm.loop !15

37:                                               ; preds = %3
  %38 = icmp slt i32 %1, 0
  br i1 %38, label %39, label %72

39:                                               ; preds = %37
  %40 = getelementptr inbounds nuw i8, ptr %0, i64 4
  %41 = load i32, ptr %40, align 4
  %42 = load i32, ptr %0, align 8
  %43 = icmp eq i32 %41, %42
  br i1 %43, label %44, label %.Vec_StrGrow.exit10_crit_edge.i23

.Vec_StrGrow.exit10_crit_edge.i23:                ; preds = %39
  %.phi.trans.insert.i24 = getelementptr inbounds nuw i8, ptr %0, i64 8
  %.pre.i25 = load ptr, ptr %.phi.trans.insert.i24, align 8
  br label %Vec_StrPush.exit29

44:                                               ; preds = %39
  %45 = icmp slt i32 %41, 16
  br i1 %45, label %46, label %54

46:                                               ; preds = %44
  %47 = getelementptr inbounds nuw i8, ptr %0, i64 8
  %48 = load ptr, ptr %47, align 8
  %.not9.i.i27 = icmp eq ptr %48, null
  br i1 %.not9.i.i27, label %51, label %49

49:                                               ; preds = %46
  %50 = tail call dereferenceable_or_null(16) ptr @realloc(ptr noundef nonnull %48, i64 noundef 16) #30
  br label %Vec_StrGrow.exit.i28

51:                                               ; preds = %46
  %52 = tail call noalias dereferenceable_or_null(16) ptr @malloc(i64 noundef 16) #28
  br label %Vec_StrGrow.exit.i28

Vec_StrGrow.exit.i28:                             ; preds = %51, %49
  %53 = phi ptr [ %50, %49 ], [ %52, %51 ]
  store ptr %53, ptr %47, align 8
  store i32 16, ptr %0, align 8
  br label %Vec_StrPush.exit29

54:                                               ; preds = %44
  %55 = shl nuw nsw i32 %41, 1
  %56 = getelementptr inbounds nuw i8, ptr %0, i64 8
  %57 = load ptr, ptr %56, align 8
  %.not9.i9.i26 = icmp eq ptr %57, null
  %58 = zext nneg i32 %55 to i64
  br i1 %.not9.i9.i26, label %61, label %59

59:                                               ; preds = %54
  %60 = tail call ptr @realloc(ptr noundef nonnull %57, i64 noundef %58) #30
  br label %63

61:                                               ; preds = %54
  %62 = tail call noalias ptr @malloc(i64 noundef %58) #28
  br label %63

63:                                               ; preds = %61, %59
  %64 = phi ptr [ %60, %59 ], [ %62, %61 ]
  store ptr %64, ptr %56, align 8
  store i32 %55, ptr %0, align 8
  br label %Vec_StrPush.exit29

Vec_StrPush.exit29:                               ; preds = %.Vec_StrGrow.exit10_crit_edge.i23, %Vec_StrGrow.exit.i28, %63
  %65 = phi ptr [ %.pre.i25, %.Vec_StrGrow.exit10_crit_edge.i23 ], [ %64, %63 ], [ %53, %Vec_StrGrow.exit.i28 ]
  %66 = load i32, ptr %40, align 4
  %67 = add nsw i32 %66, 1
  store i32 %67, ptr %40, align 4
  %68 = sext i32 %66 to i64
  %69 = getelementptr inbounds i8, ptr %65, i64 %68
  store i8 45, ptr %69, align 1
  %70 = sub nsw i32 0, %1
  %71 = add nsw i32 %2, -1
  br label %72

72:                                               ; preds = %Vec_StrPush.exit29, %37
  %.020 = phi i32 [ %70, %Vec_StrPush.exit29 ], [ %1, %37 ]
  %.019 = phi i32 [ %71, %Vec_StrPush.exit29 ], [ %2, %37 ]
  br label %73

73:                                               ; preds = %72, %73
  %indvars.iv45 = phi i32 [ 1, %72 ], [ %indvars.iv.next46, %73 ]
  %indvars.iv = phi i64 [ 0, %72 ], [ %indvars.iv.next, %73 ]
  %.12138 = phi i32 [ %.020, %72 ], [ %77, %73 ]
  %74 = srem i32 %.12138, 10
  %75 = trunc nsw i32 %74 to i8
  %76 = getelementptr inbounds nuw [16 x i8], ptr %4, i64 0, i64 %indvars.iv
  store i8 %75, ptr %76, align 1
  %77 = sdiv i32 %.12138, 10
  %indvars.iv.next = add nuw nsw i64 %indvars.iv, 1
  %.12138.off = add i32 %.12138, 9
  %.not = icmp ult i32 %.12138.off, 19
  %indvars.iv.next46 = add nuw i32 %indvars.iv45, 1
  br i1 %.not, label %.lr.ph, label %73, !llvm.loop !16

.lr.ph:                                           ; preds = %73
  %78 = getelementptr inbounds nuw i8, ptr %0, i64 4
  %.phi.trans.insert.i31 = getelementptr inbounds nuw i8, ptr %0, i64 8
  %smax = tail call i32 @llvm.smax.i32(i32 %.019, i32 %indvars.iv45)
  %79 = zext i32 %smax to i64
  br label %80

80:                                               ; preds = %.lr.ph, %Vec_StrPush.exit36
  %indvars.iv47 = phi i64 [ %79, %.lr.ph ], [ %indvars.iv.next48, %Vec_StrPush.exit36 ]
  %indvars.iv.next48 = add nsw i64 %indvars.iv47, -1
  %81 = and i64 %indvars.iv.next48, 4294967295
  %82 = getelementptr inbounds nuw [16 x i8], ptr %4, i64 0, i64 %81
  %83 = load i8, ptr %82, align 1
  %84 = add i8 %83, 48
  %85 = load i32, ptr %78, align 4
  %86 = load i32, ptr %0, align 8
  %87 = icmp eq i32 %85, %86
  br i1 %87, label %88, label %.Vec_StrGrow.exit10_crit_edge.i30

.Vec_StrGrow.exit10_crit_edge.i30:                ; preds = %80
  %.pre.i32 = load ptr, ptr %.phi.trans.insert.i31, align 8
  br label %Vec_StrPush.exit36

88:                                               ; preds = %80
  %89 = icmp slt i32 %85, 16
  br i1 %89, label %90, label %97

90:                                               ; preds = %88
  %91 = load ptr, ptr %.phi.trans.insert.i31, align 8
  %.not9.i.i34 = icmp eq ptr %91, null
  br i1 %.not9.i.i34, label %94, label %92

92:                                               ; preds = %90
  %93 = tail call dereferenceable_or_null(16) ptr @realloc(ptr noundef nonnull %91, i64 noundef 16) #30
  br label %Vec_StrGrow.exit.i35

94:                                               ; preds = %90
  %95 = tail call noalias dereferenceable_or_null(16) ptr @malloc(i64 noundef 16) #28
  br label %Vec_StrGrow.exit.i35

Vec_StrGrow.exit.i35:                             ; preds = %94, %92
  %96 = phi ptr [ %93, %92 ], [ %95, %94 ]
  store ptr %96, ptr %.phi.trans.insert.i31, align 8
  store i32 16, ptr %0, align 8
  br label %Vec_StrPush.exit36

97:                                               ; preds = %88
  %98 = shl nuw nsw i32 %85, 1
  %99 = load ptr, ptr %.phi.trans.insert.i31, align 8
  %.not9.i9.i33 = icmp eq ptr %99, null
  %100 = zext nneg i32 %98 to i64
  br i1 %.not9.i9.i33, label %103, label %101

101:                                              ; preds = %97
  %102 = tail call ptr @realloc(ptr noundef nonnull %99, i64 noundef %100) #30
  br label %105

103:                                              ; preds = %97
  %104 = tail call noalias ptr @malloc(i64 noundef %100) #28
  br label %105

105:                                              ; preds = %103, %101
  %106 = phi ptr [ %102, %101 ], [ %104, %103 ]
  store ptr %106, ptr %.phi.trans.insert.i31, align 8
  store i32 %98, ptr %0, align 8
  br label %Vec_StrPush.exit36

Vec_StrPush.exit36:                               ; preds = %.Vec_StrGrow.exit10_crit_edge.i30, %Vec_StrGrow.exit.i35, %105
  %107 = phi ptr [ %.pre.i32, %.Vec_StrGrow.exit10_crit_edge.i30 ], [ %106, %105 ], [ %96, %Vec_StrGrow.exit.i35 ]
  %108 = load i32, ptr %78, align 4
  %109 = add nsw i32 %108, 1
  store i32 %109, ptr %78, align 4
  %110 = sext i32 %108 to i64
  %111 = getelementptr inbounds i8, ptr %107, i64 %110
  store i8 %84, ptr %111, align 1
  %112 = trunc nuw i64 %indvars.iv47 to i32
  %113 = icmp sgt i32 %112, 1
  br i1 %113, label %80, label %.loopexit, !llvm.loop !17

.loopexit:                                        ; preds = %Vec_StrPush.exit36, %Vec_StrPush.exit, %.preheader
  ret void
}